target datalayout = "e-m:e-p270:32:32-p271:32:32-p272:64:64-i64:64-i128:128-f80:128-n8:16:32:64-S128"
target triple = "x86_64-pc-linux-gnu"

%struct.Abc_Obj_t_ = type { ptr, ptr, i32, i32, %struct.Vec_Int_t_, %struct.Vec_Int_t_, %union.anon, %union.anon.0 }
%struct.Vec_Int_t_ = type { i32, i32, ptr }
%union.anon = type { ptr }
%union.anon.0 = type { ptr }
%struct.Abc_Ntk_t_ = type { i32, i32, ptr, ptr, ptr, ptr, ptr, ptr, ptr, ptr, ptr, ptr, ptr, [11 x i32], i32, i32, i32, i32, ptr, i32, ptr, ptr, i32, i32, i32, double, i32, %struct.Vec_Int_t_, ptr, ptr, ptr, ptr, ptr, float, i32, ptr, ptr, ptr, ptr, ptr, ptr, ptr, ptr, ptr, ptr, ptr, ptr, ptr, ptr, ptr, ptr, ptr, ptr, ptr, ptr, ptr, ptr }
%struct.Vec_Ptr_t_ = type { i32, i32, ptr }
%struct.If_LibLut_t_ = type { ptr, i32, i32, [33 x float], [33 x [33 x float]] }

@.str = private unnamed_addr constant [62 x i8] c"The max LUT size (%d) is less than the max fanin count (%d).\0A\00", align 1
@.str.1 = private unnamed_addr constant [48 x i8] c"Max delay = %6.2f. Delay trace using %s model:\0A\00", align 1
@.str.2 = private unnamed_addr constant [12 x i8] c"LUT library\00", align 1
@.str.3 = private unnamed_addr constant [11 x i8] c"unit-delay\00", align 1
@.str.4 = private unnamed_addr constant [26 x i8] c"%3d %s : %5d  (%6.2f %%)\0A\00", align 1
@.str.5 = private unnamed_addr constant [2 x i8] c"%\00", align 1
@.str.6 = private unnamed_addr constant [4 x i8] c"lev\00", align 1

; Function Attrs: inlinehint nounwind uwtable
define internal ptr @Vec_PtrEntry(ptr noundef %0, i32 noundef %1) #2 {
  %3 = alloca ptr, align 8
  %4 = alloca i32, align 4
  store ptr %0, ptr %3, align 8, !tbaa !50
  store i32 %1, ptr %4, align 4, !tbaa !12
  %5 = load ptr, ptr %3, align 8, !tbaa !50
  %6 = getelementptr inbounds nuw %struct.Vec_Ptr_t_, ptr %5, i32 0, i32 2
  %7 = load ptr, ptr %6, align 8, !tbaa !38
  %8 = load i32, ptr %4, align 4, !tbaa !12
  %9 = sext i32 %8 to i64
  %10 = getelementptr inbounds ptr, ptr %7, i64 %9
  %11 = load ptr, ptr %10, align 8, !tbaa !41
  ret ptr %11
}

; Function Attrs: inlinehint nounwind uwtable
define internal i32 @Abc_NtkNodeNum(ptr noundef %0) #2 {
  %2 = alloca ptr, align 8
  store ptr %0, ptr %2, align 8, !tbaa !44
  %3 = load ptr, ptr %2, align 8, !tbaa !44
  %4 = getelementptr inbounds nuw %struct.Abc_Ntk_t_, ptr %3, i32 0, i32 13
  %5 = getelementptr inbounds [11 x i32], ptr %4, i64 0, i64 7
  %6 = load i32, ptr %5, align 4, !tbaa !12
  ret i32 %6
}

; Function Attrs: inlinehint nounwind uwtable
define internal float @Abc_ObjSlack(ptr noundef %0) #2 {
  %2 = alloca ptr, align 8
  store ptr %0, ptr %2, align 8, !tbaa !3
  %3 = load ptr, ptr %2, align 8, !tbaa !3
  %4 = getelementptr inbounds nuw %struct.Abc_Obj_t_, ptr %3, i32 0, i32 0
  %5 = load ptr, ptr %4, align 8, !tbaa !25
  %6 = getelementptr inbounds nuw %struct.Abc_Ntk_t_, ptr %5, i32 0, i32 49
  %7 = load ptr, ptr %6, align 8, !tbaa !42
  %8 = load ptr, ptr %2, align 8, !tbaa !3
  %9 = getelementptr inbounds nuw %struct.Abc_Obj_t_, ptr %8, i32 0, i32 2
  %10 = load i32, ptr %9, align 8, !tbaa !43
  %11 = mul nsw i32 3, %10
  %12 = add nsw i32 %11, 2
  %13 = sext i32 %12 to i64
  %14 = getelementptr inbounds float, ptr %7, i64 %13
  %15 = load float, ptr %14, align 4, !tbaa !14
  ret float %15
}

; Function Attrs: inlinehint nounwind uwtable
define internal i32 @Abc_ObjFaninNum(ptr noundef %0) #2 {
  %2 = alloca ptr, align 8
  store ptr %0, ptr %2, align 8, !tbaa !3
  %3 = load ptr, ptr %2, align 8, !tbaa !3
  %4 = getelementptr inbounds nuw %struct.Abc_Obj_t_, ptr %3, i32 0, i32 4
  %5 = getelementptr inbounds nuw %struct.Vec_Int_t_, ptr %4, i32 0, i32 1
  %6 = load i32, ptr %5, align 4, !tbaa !21
  ret i32 %6
}

; Function Attrs: inlinehint nounwind uwtable
define internal i32 @Abc_ObjIsNode(ptr noundef %0) #2 {
  %2 = alloca ptr, align 8
  store ptr %0, ptr %2, align 8, !tbaa !3
  %3 = load ptr, ptr %2, align 8, !tbaa !3
  %4 = getelementptr inbounds nuw %struct.Abc_Obj_t_, ptr %3, i32 0, i32 3
  %5 = load i32, ptr %4, align 4
  %6 = and i32 %5, 15
  %7 = icmp eq i32 %6, 7
  %8 = zext i1 %7 to i32
  ret i32 %8
}

; Function Attrs: inlinehint nounwind uwtable
define internal ptr @Abc_NtkObj(ptr noundef %0, i32 noundef %1) #2 {
  %3 = alloca ptr, align 8
  %4 = alloca i32, align 4
  store ptr %0, ptr %3, align 8, !tbaa !44
  store i32 %1, ptr %4, align 4, !tbaa !12
  %5 = load ptr, ptr %3, align 8, !tbaa !44
  %6 = getelementptr inbounds nuw %struct.Abc_Ntk_t_, ptr %5, i32 0, i32 5
  %7 = load ptr, ptr %6, align 8, !tbaa !26
  %8 = load i32, ptr %4, align 4, !tbaa !12
  %9 = call ptr @Vec_PtrEntry(ptr noundef %7, i32 noundef %8)
  ret ptr %9
}

; Function Attrs: inlinehint nounwind uwtable
define internal i32 @Vec_PtrSize(ptr noundef %0) #2 {
  %2 = alloca ptr, align 8
  store ptr %0, ptr %2, align 8, !tbaa !50
  %3 = load ptr, ptr %2, align 8, !tbaa !50
  %4 = getelementptr inbounds nuw %struct.Vec_Ptr_t_, ptr %3, i32 0, i32 1
  %5 = load i32, ptr %4, align 4, !tbaa !64
  ret i32 %5
}

; Function Attrs: nounwind uwtable
define void @Abc_NtkDelayTracePrint(ptr noundef %0, i32 noundef %1, i32 noundef %2) #0 {
  %4 = alloca ptr, align 8
  %5 = alloca i32, align 4
  %6 = alloca i32, align 4
  %7 = alloca ptr, align 8
  %8 = alloca ptr, align 8
  %9 = alloca i32, align 4
  %10 = alloca i32, align 4
  %11 = alloca ptr, align 8
  %12 = alloca float, align 4
  %13 = alloca float, align 4
  %14 = alloca float, align 4
  %15 = alloca float, align 4
  %16 = alloca i32, align 4
  store ptr %0, ptr %4, align 8, !tbaa !44
  store i32 %1, ptr %5, align 4, !tbaa !12
  store i32 %2, ptr %6, align 4, !tbaa !12
  call void @llvm.lifetime.start.p0(i64 8, ptr %7) #8
  call void @llvm.lifetime.start.p0(i64 8, ptr %8) #8
  call void @llvm.lifetime.start.p0(i64 4, ptr %9) #8
  call void @llvm.lifetime.start.p0(i64 4, ptr %10) #8
  call void @llvm.lifetime.start.p0(i64 8, ptr %11) #8
  call void @llvm.lifetime.start.p0(i64 4, ptr %12) #8
  call void @llvm.lifetime.start.p0(i64 4, ptr %13) #8
  call void @llvm.lifetime.start.p0(i64 4, ptr %14) #8
  call void @llvm.lifetime.start.p0(i64 4, ptr %15) #8
  %17 = load i32, ptr %5, align 4, !tbaa !12
  %18 = icmp ne i32 %17, 0
  br i1 %18, label %19, label %21

19:                                               ; preds = %3
  %20 = call ptr (...) @Abc_FrameReadLibLut()
  br label %22

21:                                               ; preds = %3
  br label %22

22:                                               ; preds = %21, %19
  %23 = phi ptr [ %20, %19 ], [ null, %21 ]
  store ptr %23, ptr %8, align 8, !tbaa !45
  %24 = load ptr, ptr %8, align 8, !tbaa !45
  %25 = icmp ne ptr %24, null
  br i1 %25, label %26, label %40

26:                                               ; preds = %22
  %27 = load ptr, ptr %8, align 8, !tbaa !45
  %28 = getelementptr inbounds nuw %struct.If_LibLut_t_, ptr %27, i32 0, i32 1
  %29 = load i32, ptr %28, align 8, !tbaa !47
  %30 = load ptr, ptr %4, align 8, !tbaa !44
  %31 = call i32 @Abc_NtkGetFaninMax(ptr noundef %30)
  %32 = icmp slt i32 %29, %31
  br i1 %32, label %33, label %40

33:                                               ; preds = %26
  %34 = load ptr, ptr %8, align 8, !tbaa !45
  %35 = getelementptr inbounds nuw %struct.If_LibLut_t_, ptr %34, i32 0, i32 1
  %36 = load i32, ptr %35, align 8, !tbaa !47
  %37 = load ptr, ptr %4, align 8, !tbaa !44
  %38 = call i32 @Abc_NtkGetFaninMax(ptr noundef %37)
  %39 = call i32 (ptr, ...) @printf(ptr noundef @.str, i32 noundef %36, i32 noundef %38)
  store i32 1, ptr %16, align 4
  br label %161

40:                                               ; preds = %26, %22
  %41 = load i32, ptr %5, align 4, !tbaa !12
  %42 = icmp ne i32 %41, 0
  br i1 %42, label %43, label %44

43:                                               ; preds = %40
  br label %47

44:                                               ; preds = %40
  %45 = load ptr, ptr %4, align 8, !tbaa !44
  %46 = call i32 @Abc_NtkLevel(ptr noundef %45)
  br label %47

47:                                               ; preds = %44, %43
  %48 = phi i32 [ 20, %43 ], [ %46, %44 ]
  %49 = sitofp i32 %48 to float
  store float %49, ptr %14, align 4, !tbaa !14
  %50 = load float, ptr %14, align 4, !tbaa !14
  %51 = fadd float %50, 1.000000e+00
  %52 = fptoui float %51 to i64
  %53 = mul i64 4, %52
  %54 = call noalias ptr @malloc(i64 noundef %53) #9
  store ptr %54, ptr %11, align 8, !tbaa !8
  %55 = load ptr, ptr %11, align 8, !tbaa !8
  %56 = load float, ptr %14, align 4, !tbaa !14
  %57 = fadd float %56, 1.000000e+00
  %58 = fmul float 4.000000e+00, %57
  %59 = fptoui float %58 to i64
  call void @llvm.memset.p0.i64(ptr align 4 %55, i8 0, i64 %59, i1 false)
  %60 = load ptr, ptr %4, align 8, !tbaa !44
  %61 = load i32, ptr %5, align 4, !tbaa !12
  %62 = call float @Abc_NtkDelayTraceLut(ptr noundef %60, i32 noundef %61)
  store float %62, ptr %12, align 4, !tbaa !14
  %63 = load float, ptr %12, align 4, !tbaa !14
  %64 = load float, ptr %14, align 4, !tbaa !14
  %65 = fdiv float %63, %64
  store float %65, ptr %13, align 4, !tbaa !14
  store i32 0, ptr %9, align 4, !tbaa !12
  br label %66

66:                                               ; preds = %105, %47
  %67 = load i32, ptr %9, align 4, !tbaa !12
  %68 = load ptr, ptr %4, align 8, !tbaa !44
  %69 = getelementptr inbounds nuw %struct.Abc_Ntk_t_, ptr %68, i32 0, i32 5
  %70 = load ptr, ptr %69, align 8, !tbaa !26
  %71 = call i32 @Vec_PtrSize(ptr noundef %70)
  %72 = icmp slt i32 %67, %71
  br i1 %72, label %73, label %77

73:                                               ; preds = %66
  %74 = load ptr, ptr %4, align 8, !tbaa !44
  %75 = load i32, ptr %9, align 4, !tbaa !12
  %76 = call ptr @Abc_NtkObj(ptr noundef %74, i32 noundef %75)
  store ptr %76, ptr %7, align 8, !tbaa !3
  br label %77

77:                                               ; preds = %73, %66
  %78 = phi i1 [ false, %66 ], [ true, %73 ]
  br i1 %78, label %79, label %108

79:                                               ; preds = %77
  %80 = load ptr, ptr %7, align 8, !tbaa !3
  %81 = icmp eq ptr %80, null
  br i1 %81, label %86, label %82

82:                                               ; preds = %79
  %83 = load ptr, ptr %7, align 8, !tbaa !3
  %84 = call i32 @Abc_ObjIsNode(ptr noundef %83)
  %85 = icmp ne i32 %84, 0
  br i1 %85, label %87, label %86

86:                                               ; preds = %82, %79
  br label %104

87:                                               ; preds = %82
  %88 = load ptr, ptr %7, align 8, !tbaa !3
  %89 = call i32 @Abc_ObjFaninNum(ptr noundef %88)
  %90 = icmp eq i32 %89, 0
  br i1 %90, label %91, label %92

91:                                               ; preds = %87
  br label %105

92:                                               ; preds = %87
  %93 = load ptr, ptr %7, align 8, !tbaa !3
  %94 = call float @Abc_ObjSlack(ptr noundef %93)
  %95 = load float, ptr %13, align 4, !tbaa !14
  %96 = fdiv float %94, %95
  store float %96, ptr %15, align 4, !tbaa !14
  %97 = load ptr, ptr %11, align 8, !tbaa !8
  %98 = load float, ptr %15, align 4, !tbaa !14
  %99 = fptosi float %98 to i32
  %100 = sext i32 %99 to i64
  %101 = getelementptr inbounds i32, ptr %97, i64 %100
  %102 = load i32, ptr %101, align 4, !tbaa !12
  %103 = add nsw i32 %102, 1
  store i32 %103, ptr %101, align 4, !tbaa !12
  br label %104

104:                                              ; preds = %92, %86
  br label %105

105:                                              ; preds = %104, %91
  %106 = load i32, ptr %9, align 4, !tbaa !12
  %107 = add nsw i32 %106, 1
  store i32 %107, ptr %9, align 4, !tbaa !12
  br label %66, !llvm.loop !66

108:                                              ; preds = %77
  %109 = load float, ptr %12, align 4, !tbaa !14
  %110 = fpext float %109 to double
  %111 = load i32, ptr %5, align 4, !tbaa !12
  %112 = icmp ne i32 %111, 0
  %113 = select i1 %112, ptr @.str.2, ptr @.str.3
  %114 = call i32 (ptr, ...) @printf(ptr noundef @.str.1, double noundef %110, ptr noundef %113)
  store i32 0, ptr %10, align 4, !tbaa !12
  store i32 0, ptr %9, align 4, !tbaa !12
  br label %115

115:                                              ; preds = %151, %108
  %116 = load i32, ptr %9, align 4, !tbaa !12
  %117 = sitofp i32 %116 to float
  %118 = load float, ptr %14, align 4, !tbaa !14
  %119 = fcmp olt float %117, %118
  br i1 %119, label %120, label %154

120:                                              ; preds = %115
  %121 = load ptr, ptr %11, align 8, !tbaa !8
  %122 = load i32, ptr %9, align 4, !tbaa !12
  %123 = sext i32 %122 to i64
  %124 = getelementptr inbounds i32, ptr %121, i64 %123
  %125 = load i32, ptr %124, align 4, !tbaa !12
  %126 = load i32, ptr %10, align 4, !tbaa !12
  %127 = add nsw i32 %126, %125
  store i32 %127, ptr %10, align 4, !tbaa !12
  %128 = load i32, ptr %5, align 4, !tbaa !12
  %129 = icmp ne i32 %128, 0
  br i1 %129, label %130, label %134

130:                                              ; preds = %120
  %131 = load i32, ptr %9, align 4, !tbaa !12
  %132 = add nsw i32 %131, 1
  %133 = mul nsw i32 5, %132
  br label %137

134:                                              ; preds = %120
  %135 = load i32, ptr %9, align 4, !tbaa !12
  %136 = add nsw i32 %135, 1
  br label %137

137:                                              ; preds = %134, %130
  %138 = phi i32 [ %133, %130 ], [ %136, %134 ]
  %139 = load i32, ptr %5, align 4, !tbaa !12
  %140 = icmp ne i32 %139, 0
  %141 = select i1 %140, ptr @.str.5, ptr @.str.6
  %142 = load i32, ptr %10, align 4, !tbaa !12
  %143 = load i32, ptr %10, align 4, !tbaa !12
  %144 = sitofp i32 %143 to double
  %145 = fmul double 1.000000e+02, %144
  %146 = load ptr, ptr %4, align 8, !tbaa !44
  %147 = call i32 @Abc_NtkNodeNum(ptr noundef %146)
  %148 = sitofp i32 %147 to double
  %149 = fdiv double %145, %148
  %150 = call i32 (ptr, ...) @printf(ptr noundef @.str.4, i32 noundef %138, ptr noundef %141, i32 noundef %142, double noundef %149)
  br label %151

151:                                              ; preds = %137
  %152 = load i32, ptr %9, align 4, !tbaa !12
  %153 = add nsw i32 %152, 1
  store i32 %153, ptr %9, align 4, !tbaa !12
  br label %115, !llvm.loop !67

154:                                              ; preds = %115
  %155 = load ptr, ptr %11, align 8, !tbaa !8
  %156 = icmp ne ptr %155, null
  br i1 %156, label %157, label %159

157:                                              ; preds = %154
  %158 = load ptr, ptr %11, align 8, !tbaa !8
  call void @free(ptr noundef %158) #8
  store ptr null, ptr %11, align 8, !tbaa !8
  br label %160

159:                                              ; preds = %154
  br label %160

160:                                              ; preds = %159, %157
  store i32 0, ptr %16, align 4
  br label %161

161:                                              ; preds = %160, %33
  call void @llvm.lifetime.end.p0(i64 4, ptr %15) #8
  call void @llvm.lifetime.end.p0(i64 4, ptr %14) #8
  call void @llvm.lifetime.end.p0(i64 4, ptr %13) #8
  call void @llvm.lifetime.end.p0(i64 4, ptr %12) #8
  call void @llvm.lifetime.end.p0(i64 8, ptr %11) #8
  call void @llvm.lifetime.end.p0(i64 4, ptr %10) #8
  call void @llvm.lifetime.end.p0(i64 4, ptr %9) #8
  call void @llvm.lifetime.end.p0(i64 8, ptr %8) #8
  call void @llvm.lifetime.end.p0(i64 8, ptr %7) #8
  %162 = load i32, ptr %16, align 4
  switch i32 %162, label %164 [
    i32 0, label %163
    i32 1, label %163
  ]

163:                                              ; preds = %161, %161
  ret void

164:                                              ; preds = %161
  unreachable
}