; Function Attrs: nounwind uwtable
define void @Abc_NtkDelayTracePrint(ptr noundef %0, i32 noundef %1, i32 noundef %2) local_unnamed_addr #2 {
  %.not = icmp eq i32 %1, 0
  br i1 %.not, label %15, label %4

4:                                                ; preds = %3
  %5 = tail call ptr (...) @Abc_FrameReadLibLut() #15
  %.not47 = icmp eq ptr %5, null
  br i1 %.not47, label %.thread57, label %6

6:                                                ; preds = %4
  %7 = getelementptr inbounds nuw i8, ptr %5, i64 8
  %8 = load i32, ptr %7, align 8, !tbaa !40
  %9 = tail call i32 @Abc_NtkGetFaninMax(ptr noundef %0) #15
  %10 = icmp slt i32 %8, %9
  br i1 %10, label %11, label %.thread57

11:                                               ; preds = %6
  %12 = load i32, ptr %7, align 8, !tbaa !40
  %13 = tail call i32 @Abc_NtkGetFaninMax(ptr noundef %0) #15
  %14 = tail call i32 (ptr, ...) @printf(ptr noundef nonnull dereferenceable(1) @.str, i32 noundef %12, i32 noundef %13)
  br label %88

15:                                               ; preds = %3
  %16 = tail call i32 @Abc_NtkLevel(ptr noundef %0) #15
  %17 = sitofp i32 %16 to float
  br label %.thread57

.thread57:                                        ; preds = %4, %6, %15
  %18 = phi float [ %17, %15 ], [ 2.000000e+01, %6 ], [ 2.000000e+01, %4 ]
  %19 = fadd float %18, 1.000000e+00
  %20 = fptoui float %19 to i64
  %21 = shl i64 %20, 2
  %22 = tail call noalias ptr @malloc(i64 noundef %21) #16
  %23 = fmul float %19, 4.000000e+00
  %24 = fptoui float %23 to i64
  tail call void @llvm.memset.p0.i64(ptr align 4 %22, i8 0, i64 %24, i1 false)
  %25 = tail call float @Abc_NtkDelayTraceLut(ptr noundef %0, i32 noundef %1)
  %26 = fdiv float %25, %18
  %27 = getelementptr inbounds nuw i8, ptr %0, i64 32
  %28 = load ptr, ptr %27, align 8, !tbaa !15
  %29 = getelementptr i8, ptr %28, i64 4
  %.val50 = load i32, ptr %29, align 4, !tbaa !42
  %30 = icmp sgt i32 %.val50, 0
  br i1 %30, label %.lr.ph, label %.critedge

.lr.ph:                                           ; preds = %.thread57
  %31 = getelementptr i8, ptr %28, i64 8
  %.val51.val = load ptr, ptr %31, align 8, !tbaa !29
  %wide.trip.count = zext nneg i32 %.val50 to i64
  br label %32

32:                                               ; preds = %.lr.ph, %56
  %indvars.iv = phi i64 [ 0, %.lr.ph ], [ %indvars.iv.next, %56 ]
  %33 = getelementptr inbounds nuw ptr, ptr %.val51.val, i64 %indvars.iv
  %34 = load ptr, ptr %33, align 8, !tbaa !32
  %35 = icmp eq ptr %34, null
  br i1 %35, label %56, label %36

36:                                               ; preds = %32
  %37 = getelementptr i8, ptr %34, i64 20
  %.val52 = load i32, ptr %37, align 4
  %38 = and i32 %.val52, 15
  %.not58 = icmp eq i32 %38, 7
  br i1 %.not58, label %39, label %56

39:                                               ; preds = %36
  %40 = getelementptr i8, ptr %34, i64 28
  %.val = load i32, ptr %40, align 4, !tbaa !3
  %41 = icmp eq i32 %.val, 0
  br i1 %41, label %56, label %42

42:                                               ; preds = %39
  %.val53 = load ptr, ptr %34, align 8, !tbaa !13
  %43 = getelementptr i8, ptr %34, i64 16
  %.val54 = load i32, ptr %43, align 8, !tbaa !33
  %44 = getelementptr i8, ptr %.val53, i64 400
  %.val53.val = load ptr, ptr %44, align 8, !tbaa !34
  %45 = mul nsw i32 %.val54, 3
  %46 = sext i32 %45 to i64
  %47 = getelementptr float, ptr %.val53.val, i64 %46
  %48 = getelementptr i8, ptr %47, i64 8
  %49 = load float, ptr %48, align 4, !tbaa !35
  %50 = fdiv float %49, %26
  %51 = fptosi float %50 to i32
  %52 = sext i32 %51 to i64
  %53 = getelementptr inbounds i32, ptr %22, i64 %52
  %54 = load i32, ptr %53, align 4, !tbaa !31
  %55 = add nsw i32 %54, 1
  store i32 %55, ptr %53, align 4, !tbaa !31
  br label %56

56:                                               ; preds = %42, %36, %32, %39
  %indvars.iv.next = add nuw nsw i64 %indvars.iv, 1
  %exitcond.not = icmp eq i64 %indvars.iv.next, %wide.trip.count
  br i1 %exitcond.not, label %.critedge, label %32, !llvm.loop !56

.critedge:                                        ; preds = %56, %.thread57
  %57 = fpext float %25 to double
  %58 = select i1 %.not, ptr @.str.3, ptr @.str.2
  %59 = tail call i32 (ptr, ...) @printf(ptr noundef nonnull dereferenceable(1) @.str.1, double noundef %57, ptr noundef nonnull %58)
  %60 = fcmp ogt float %18, 0.000000e+00
  br i1 %60, label %.lr.ph62, label %._crit_edge

.lr.ph62:                                         ; preds = %.critedge
  %61 = select i1 %.not, ptr @.str.6, ptr @.str.5
  %62 = getelementptr i8, ptr %0, i64 124
  br i1 %.not, label %.lr.ph62.split.us, label %.lr.ph62.split

.lr.ph62.split.us:                                ; preds = %.lr.ph62, %.lr.ph62.split.us
  %indvars.iv68 = phi i64 [ %indvars.iv.next69, %.lr.ph62.split.us ], [ 0, %.lr.ph62 ]
  %.04360.us = phi i32 [ %65, %.lr.ph62.split.us ], [ 0, %.lr.ph62 ]
  %63 = getelementptr inbounds nuw i32, ptr %22, i64 %indvars.iv68
  %64 = load i32, ptr %63, align 4, !tbaa !31
  %65 = add nsw i32 %64, %.04360.us
  %indvars.iv.next69 = add nuw nsw i64 %indvars.iv68, 1
  %66 = sitofp i32 %65 to double
  %67 = fmul double %66, 1.000000e+02
  %.val55.us = load i32, ptr %62, align 4, !tbaa !31
  %68 = sitofp i32 %.val55.us to double
  %69 = fdiv double %67, %68
  %70 = trunc nuw nsw i64 %indvars.iv.next69 to i32
  %71 = tail call i32 (ptr, ...) @printf(ptr noundef nonnull dereferenceable(1) @.str.4, i32 noundef %70, ptr noundef nonnull %61, i32 noundef %65, double noundef %69)
  %72 = uitofp nneg i32 %70 to float
  %73 = fcmp ogt float %18, %72
  br i1 %73, label %.lr.ph62.split.us, label %._crit_edge.thread, !llvm.loop !57

.lr.ph62.split:                                   ; preds = %.lr.ph62, %.lr.ph62.split
  %indvars.iv65 = phi i64 [ %indvars.iv.next66, %.lr.ph62.split ], [ 0, %.lr.ph62 ]
  %.04360 = phi i32 [ %76, %.lr.ph62.split ], [ 0, %.lr.ph62 ]
  %74 = getelementptr inbounds nuw i32, ptr %22, i64 %indvars.iv65
  %75 = load i32, ptr %74, align 4, !tbaa !31
  %76 = add nsw i32 %75, %.04360
  %77 = trunc nuw nsw i64 %indvars.iv65 to i32
  %78 = mul i32 %77, 5
  %79 = add i32 %78, 5
  %indvars.iv.next66 = add nuw nsw i64 %indvars.iv65, 1
  %80 = sitofp i32 %76 to double
  %81 = fmul double %80, 1.000000e+02
  %.val55 = load i32, ptr %62, align 4, !tbaa !31
  %82 = sitofp i32 %.val55 to double
  %83 = fdiv double %81, %82
  %84 = tail call i32 (ptr, ...) @printf(ptr noundef nonnull dereferenceable(1) @.str.4, i32 noundef %79, ptr noundef nonnull %61, i32 noundef %76, double noundef %83)
  %85 = trunc nuw i64 %indvars.iv.next66 to i32
  %86 = uitofp nneg i32 %85 to float
  %87 = fcmp ogt float %18, %86
  br i1 %87, label %.lr.ph62.split, label %._crit_edge.thread, !llvm.loop !57

._crit_edge:                                      ; preds = %.critedge
  %.not48 = icmp eq ptr %22, null
  br i1 %.not48, label %88, label %._crit_edge.thread

._crit_edge.thread:                               ; preds = %.lr.ph62.split, %.lr.ph62.split.us, %._crit_edge
  tail call void @free(ptr noundef nonnull %22) #15
  br label %88

88:                                               ; preds = %._crit_edge.thread, %._crit_edge, %11
  ret void
}